#include <math.h>
#include <stdio.h>
#include <stdlib.h>
#include <string.h>

/* Note:Your choice is C IDE */
void change(int *a,int n)
{int t,i,j;
	for(i=1;i<n;i++)
	for(j=0;j<i;j++)
	{if (a[i]<a[j])
		{t=a[j];
			a[j]=a[i];
			a[i]=t;}}}
void input(int *a, int n)
{int i;
	for(i=0;i<n;i++)
	scanf("%d",&a[i]);}
void output(int *a,int n)
{int i;
	for(i=0;i<n;i++)
	printf("%d ",a[i]);}
void main()
{int n,m,a[100],b[100];
	scanf("%d%d",&n,&m);
	input(a,n);input(b,m);
	change(a,n);change(b,m);
	output(a,n);output(b,m-1);printf("%d",b[m-1]);}

    
